; Function Attrs: mustprogress nounwind uwtable
define dso_local void @_ZN4onnx26TensorShapeProto_Dimension11clear_valueEv(ptr noundef nonnull align 8 captures(none) dereferenceable(48) %0) local_unnamed_addr #7 align 2 personality ptr @__gxx_personality_v0 {
  %2 = getelementptr inbounds nuw i8, ptr %0, i64 40
  %3 = load i32, ptr %2, align 8, !tbaa !50
  %cond = icmp eq i32 %3, 2
  br i1 %cond, label %4, label %_ZN6google8protobuf8internal14ArenaStringPtr7DestroyEPKNSt7__cxx1112basic_stringIcSt11char_traitsIcESaIcEEEPNS0_5ArenaE.exit

4:                                                ; preds = %1
  %5 = getelementptr inbounds nuw i8, ptr %0, i64 32
  %6 = getelementptr inbounds nuw i8, ptr %0, i64 8
  %7 = load ptr, ptr %6, align 8, !tbaa !4
  %8 = ptrtoint ptr %7 to i64
  %9 = and i64 %8, 1
  %.not.i = icmp eq i64 %9, 0
  br i1 %.not.i, label %_ZNK6google8protobuf11MessageLite8GetArenaEv.exit, label %10, !prof !11

10:                                               ; preds = %4
  %11 = and i64 %8, -2
  %12 = inttoptr i64 %11 to ptr
  %13 = load ptr, ptr %12, align 8, !tbaa !86
  br label %_ZNK6google8protobuf11MessageLite8GetArenaEv.exit

_ZNK6google8protobuf11MessageLite8GetArenaEv.exit: ; preds = %4, %10
  %.0.i.i = phi ptr [ %13, %10 ], [ %7, %4 ]
  %14 = icmp eq ptr %.0.i.i, null
  br i1 %14, label %15, label %_ZN6google8protobuf8internal14ArenaStringPtr7DestroyEPKNSt7__cxx1112basic_stringIcSt11char_traitsIcESaIcEEEPNS0_5ArenaE.exit

15:                                               ; preds = %_ZNK6google8protobuf11MessageLite8GetArenaEv.exit
  %16 = load ptr, ptr %5, align 8, !tbaa !12
  %.not.i1 = icmp eq ptr %16, @_ZN6google8protobuf8internal26fixed_address_empty_stringB5cxx11E
  %17 = icmp eq ptr %16, null
  %or.cond.i = or i1 %.not.i1, %17
  br i1 %or.cond.i, label %_ZN6google8protobuf8internal14ArenaStringPtr7DestroyEPKNSt7__cxx1112basic_stringIcSt11char_traitsIcESaIcEEEPNS0_5ArenaE.exit, label %18

18:                                               ; preds = %15
  %19 = load ptr, ptr %16, align 8, !tbaa !92
  %20 = getelementptr inbounds nuw i8, ptr %16, i64 16
  %21 = icmp eq ptr %19, %20
  br i1 %21, label %_ZNKSt7__cxx1112basic_stringIcSt11char_traitsIcESaIcEE11_M_is_localEv.exit.thread.i.i.i, label %_ZNKSt7__cxx1112basic_stringIcSt11char_traitsIcESaIcEE11_M_is_localEv.exit.i.i.i

_ZNKSt7__cxx1112basic_stringIcSt11char_traitsIcESaIcEE11_M_is_localEv.exit.thread.i.i.i: ; preds = %18
  %22 = getelementptr inbounds nuw i8, ptr %16, i64 8
  %23 = load i64, ptr %22, align 8, !tbaa !96
  %24 = icmp ult i64 %23, 16
  tail call void @llvm.assume(i1 %24)
  br label %_ZNSt7__cxx1112basic_stringIcSt11char_traitsIcESaIcEED2Ev.exit.i

_ZNKSt7__cxx1112basic_stringIcSt11char_traitsIcESaIcEE11_M_is_localEv.exit.i.i.i: ; preds = %18
  tail call void @_ZdlPv(ptr noundef %19) #24
  br label %_ZNSt7__cxx1112basic_stringIcSt11char_traitsIcESaIcEED2Ev.exit.i

_ZNSt7__cxx1112basic_stringIcSt11char_traitsIcESaIcEED2Ev.exit.i: ; preds = %_ZNKSt7__cxx1112basic_stringIcSt11char_traitsIcESaIcEE11_M_is_localEv.exit.i.i.i, %_ZNKSt7__cxx1112basic_stringIcSt11char_traitsIcESaIcEE11_M_is_localEv.exit.thread.i.i.i
  tail call void @_ZdlPv(ptr noundef nonnull %16) #24
  br label %_ZN6google8protobuf8internal14ArenaStringPtr7DestroyEPKNSt7__cxx1112basic_stringIcSt11char_traitsIcESaIcEEEPNS0_5ArenaE.exit

_ZN6google8protobuf8internal14ArenaStringPtr7DestroyEPKNSt7__cxx1112basic_stringIcSt11char_traitsIcESaIcEEEPNS0_5ArenaE.exit: ; preds = %_ZNSt7__cxx1112basic_stringIcSt11char_traitsIcESaIcEED2Ev.exit.i, %15, %_ZNK6google8protobuf11MessageLite8GetArenaEv.exit, %1
  store i32 0, ptr %2, align 8, !tbaa !50
  ret void
}